; Function Attrs: nounwind uwtable
define i64 @l_Lean_Compiler_LCNF_instHashableParam(ptr noundef readonly captures(none) %0) local_unnamed_addr #0 {
  %2 = getelementptr inbounds nuw i8, ptr %0, i64 8
  %3 = load ptr, ptr %2, align 8, !tbaa !4
  %4 = tail call i64 @l___private_Lean_Expr_0__Lean_hashFVarId____x40_Lean_Expr___hyg_1730_(ptr noundef %3) #3
  %5 = getelementptr inbounds nuw i8, ptr %0, i64 24
  %6 = load ptr, ptr %5, align 8, !tbaa !4
  %7 = tail call i64 @l_Lean_Expr_hash(ptr noundef %6) #3
  %8 = tail call i64 @lean_uint64_mix_hash(i64 noundef %4, i64 noundef %7) #3
  ret i64 %8
}